target datalayout = "e-m:e-p270:32:32-p271:32:32-p272:64:64-i64:64-i128:128-f80:128-n8:16:32:64-S128"
target triple = "x86_64-pc-linux-gnu"

%struct.SDL_Properties = type { ptr, ptr }

@SDL_properties = internal global ptr null, align 8

; Function Attrs: nounwind uwtable
define hidden void @SDL_UnlockProperties_REAL(i32 noundef %0) #0 {
  %2 = alloca i32, align 4
  %3 = alloca ptr, align 8
  %4 = alloca i32, align 4
  store i32 %0, ptr %2, align 4
  call void @llvm.lifetime.start.p0(i64 8, ptr %3) #6
  store ptr null, ptr %3, align 8
  %5 = load i32, ptr %2, align 4
  %6 = icmp ne i32 %5, 0
  br i1 %6, label %8, label %7

7:                                                ; preds = %1
  store i32 1, ptr %4, align 4
  br label %21

8:                                                ; preds = %1
  %9 = load ptr, ptr @SDL_properties, align 8
  %10 = load i32, ptr %2, align 4
  %11 = zext i32 %10 to i64
  %12 = inttoptr i64 %11 to ptr
  %13 = call zeroext i1 @SDL_FindInHashTable(ptr noundef %9, ptr noundef %12, ptr noundef %3)
  %14 = load ptr, ptr %3, align 8
  %15 = icmp ne ptr %14, null
  br i1 %15, label %17, label %16

16:                                               ; preds = %8
  store i32 1, ptr %4, align 4
  br label %21

17:                                               ; preds = %8
  %18 = load ptr, ptr %3, align 8
  %19 = getelementptr inbounds nuw %struct.SDL_Properties, ptr %18, i32 0, i32 1
  %20 = load ptr, ptr %19, align 8
  call void @SDL_UnlockMutex_REAL(ptr noundef %20)
  store i32 0, ptr %4, align 4
  br label %21

21:                                               ; preds = %17, %16, %7
  call void @llvm.lifetime.end.p0(i64 8, ptr %3) #6
  %22 = load i32, ptr %4, align 4
  switch i32 %22, label %24 [
    i32 0, label %23
    i32 1, label %23
  ]

23:                                               ; preds = %21, %21
  ret void

24:                                               ; preds = %21
  unreachable
}