; Function Attrs: nounwind uwtable
define hidden void @SDL_UnlockProperties_REAL(i32 noundef %0) local_unnamed_addr #0 {
  %2 = alloca ptr, align 8
  call void @llvm.lifetime.start.p0(i64 8, ptr nonnull %2) #6
  store ptr null, ptr %2, align 8
  %.not = icmp eq i32 %0, 0
  br i1 %.not, label %12, label %3

3:                                                ; preds = %1
  %4 = load ptr, ptr @SDL_properties, align 8
  %5 = zext i32 %0 to i64
  %6 = inttoptr i64 %5 to ptr
  %7 = call zeroext i1 @SDL_FindInHashTable(ptr noundef %4, ptr noundef nonnull %6, ptr noundef nonnull %2) #6
  %8 = load ptr, ptr %2, align 8
  %.not3 = icmp eq ptr %8, null
  br i1 %.not3, label %12, label %9

9:                                                ; preds = %3
  %10 = getelementptr inbounds nuw i8, ptr %8, i64 8
  %11 = load ptr, ptr %10, align 8
  call void @SDL_UnlockMutex_REAL(ptr noundef %11) #6
  br label %12

12:                                               ; preds = %3, %1, %9
  call void @llvm.lifetime.end.p0(i64 8, ptr nonnull %2) #6
  ret void
}